; Function Attrs: nounwind uwtable
define ptr @l___private_Lean_Meta_Tactic_Grind_Arith_Cutsat_EqCnstr_0__Lean_Meta_Grind_Arith_Cutsat_isForbiddenParent___lambda__3(i8 noundef zeroext %0, ptr noundef %1, ptr noundef readnone captures(none) %2) local_unnamed_addr #1 {
  %switch = icmp ult i8 %0, 3
  br i1 %switch, label %lean_dec.exit.sink.split, label %lean_dec.exit

lean_dec.exit.sink.split:                         ; preds = %3
  %4 = tail call ptr @l___private_Lean_Meta_Tactic_Grind_Arith_Cutsat_EqCnstr_0__Lean_Meta_Grind_Arith_Cutsat_isForbiddenParent___lambda__2(i8 noundef zeroext %0, ptr noundef %1, ptr nonnull poison)
  br label %lean_dec.exit

lean_dec.exit:                                    ; preds = %3, %lean_dec.exit.sink.split
  %.0 = phi ptr [ inttoptr (i64 1 to ptr), %3 ], [ %4, %lean_dec.exit.sink.split ]
  ret ptr %.0
}